target datalayout = "e-m:e-p270:32:32-p271:32:32-p272:64:64-i64:64-i128:128-f80:128-n8:16:32:64-S128"
target triple = "x86_64-pc-linux-gnu"

%struct.WOLFSSL = type <{ ptr, ptr, ptr, ptr, [48 x i8], [48 x i8], ptr, ptr, ptr, ptr, ptr, ptr, ptr, ptr, ptr, ptr, ptr, ptr, ptr, i32, [4 x i8], %struct.WOLFSSL_CIPHER, ptr, %struct.Ciphers, %struct.Ciphers, [8 x i8], %struct.Buffers, ptr, ptr, %struct.WOLFSSL_ALERT_HISTORY, %struct.WOLFSSL_ALERT, i32, i32, i32, i32, i32, i32, i32, i16, [2 x i8], i32, i8, %struct.RecordLayerHeader, %struct.MsgsReceived, %struct.ProtocolVersion, %struct.ProtocolVersion, %struct.CipherSpecs, [2 x i8], %struct.Keys, %struct.Options, ptr, i8, i8, i16, [10 x i16], i8, i8, i16, i16, [38 x i8], i32, i32, [4 x i8], ptr, i8, i8, [6 x i8], ptr, ptr, i16, i8, i8, i32, i8, [3 x i8], i32, %struct.OneTimeAuth, ptr }>
%struct.WOLFSSL_CIPHER = type { i8, i8, ptr }
%struct.Ciphers = type { ptr, ptr, ptr, ptr, i8, i8 }
%struct.Buffers = type { %struct.bufferStatic, %struct.bufferStatic, %struct.WOLFSSL_BUFFER_INFO, %struct.WOLFSSL_BUFFER_INFO, %struct.WOLFSSL_BUFFER_INFO, %struct.WOLFSSL_BUFFER_INFO, i32, i32, i8, i8, i8, i8, %struct.WOLFSSL_BUFFER_INFO, %struct.WOLFSSL_BUFFER_INFO, %struct.WOLFSSL_BUFFER_INFO, %struct.WOLFSSL_BUFFER_INFO, ptr, ptr, ptr, i8, i8, i32, i32, ptr, i32, [1 x ptr] }
%struct.bufferStatic = type { [5 x i8], ptr, i32, i32, i32, i8, i8 }
%struct.WOLFSSL_BUFFER_INFO = type { ptr, i32 }
%struct.WOLFSSL_ALERT_HISTORY = type { %struct.WOLFSSL_ALERT, %struct.WOLFSSL_ALERT }
%struct.WOLFSSL_ALERT = type { i32, i32 }
%struct.RecordLayerHeader = type { i8, i8, i8, [2 x i8] }
%struct.MsgsReceived = type { i32 }
%struct.ProtocolVersion = type { i8, i8 }
%struct.CipherSpecs = type { i16, i16, i16, i16, i8, i8, i8, i8, i8, i8, i8, i8 }
%struct.Keys = type { [64 x i8], [64 x i8], [32 x i8], [32 x i8], [16 x i8], [16 x i8], [8 x i8], [12 x i8], [12 x i8], i32, i32, i32, i32, i32, i32, i8, i8, i8, i8 }
%struct.Options = type { i64, i64, i8, i8, i8, i8, i8, i8, i8, i8, i8, i8, i8, i8, i8, i8, i8, i8, i8, i8, i8, i8, i8, i16, i16, i16, i16, i16, i8 }
%struct.OneTimeAuth = type { ptr, i8 }

; Function Attrs: nounwind uwtable
define i32 @SetCipherSpecs(ptr noundef %0) #0 {
  %2 = alloca ptr, align 8
  %3 = alloca i32, align 4
  store ptr %0, ptr %2, align 8, !tbaa !3
  call void @llvm.lifetime.start.p0(i64 4, ptr %3) #5
  %4 = load ptr, ptr %2, align 8, !tbaa !3
  %5 = getelementptr inbounds nuw %struct.WOLFSSL, ptr %4, i32 0, i32 49
  %6 = getelementptr inbounds nuw %struct.Options, ptr %5, i32 0, i32 1
  %7 = load i64, ptr %6, align 8
  %8 = lshr i64 %7, 4
  %9 = and i64 %8, 3
  %10 = trunc i64 %9 to i16
  %11 = load ptr, ptr %2, align 8, !tbaa !3
  %12 = getelementptr inbounds nuw %struct.WOLFSSL, ptr %11, i32 0, i32 49
  %13 = getelementptr inbounds nuw %struct.Options, ptr %12, i32 0, i32 7
  %14 = load i8, ptr %13, align 1, !tbaa !8
  %15 = load ptr, ptr %2, align 8, !tbaa !3
  %16 = getelementptr inbounds nuw %struct.WOLFSSL, ptr %15, i32 0, i32 49
  %17 = getelementptr inbounds nuw %struct.Options, ptr %16, i32 0, i32 8
  %18 = load i8, ptr %17, align 2, !tbaa !44
  %19 = load ptr, ptr %2, align 8, !tbaa !3
  %20 = getelementptr inbounds nuw %struct.WOLFSSL, ptr %19, i32 0, i32 46
  %21 = load ptr, ptr %2, align 8, !tbaa !3
  %22 = getelementptr inbounds nuw %struct.WOLFSSL, ptr %21, i32 0, i32 49
  %23 = call i32 @GetCipherSpec(i16 noundef zeroext %10, i8 noundef zeroext %14, i8 noundef zeroext %18, ptr noundef %20, ptr noundef %22)
  store i32 %23, ptr %3, align 4, !tbaa !45
  %24 = load i32, ptr %3, align 4, !tbaa !45
  %25 = icmp eq i32 %24, 0
  br i1 %25, label %26, label %98

26:                                               ; preds = %1
  %27 = load ptr, ptr %2, align 8, !tbaa !3
  %28 = getelementptr inbounds nuw %struct.WOLFSSL, ptr %27, i32 0, i32 44
  %29 = getelementptr inbounds nuw %struct.ProtocolVersion, ptr %28, i32 0, i32 0
  %30 = load i8, ptr %29, align 2, !tbaa !46
  %31 = zext i8 %30 to i32
  %32 = icmp eq i32 %31, 3
  br i1 %32, label %33, label %77

33:                                               ; preds = %26
  %34 = load ptr, ptr %2, align 8, !tbaa !3
  %35 = getelementptr inbounds nuw %struct.WOLFSSL, ptr %34, i32 0, i32 44
  %36 = getelementptr inbounds nuw %struct.ProtocolVersion, ptr %35, i32 0, i32 1
  %37 = load i8, ptr %36, align 1, !tbaa !47
  %38 = zext i8 %37 to i32
  %39 = icmp sge i32 %38, 1
  br i1 %39, label %40, label %77

40:                                               ; preds = %33
  %41 = load ptr, ptr %2, align 8, !tbaa !3
  %42 = getelementptr inbounds nuw %struct.WOLFSSL, ptr %41, i32 0, i32 49
  %43 = getelementptr inbounds nuw %struct.Options, ptr %42, i32 0, i32 1
  %44 = load i64, ptr %43, align 8
  %45 = and i64 %44, -16385
  %46 = or i64 %45, 16384
  store i64 %46, ptr %43, align 8
  %47 = load ptr, ptr %2, align 8, !tbaa !3
  %48 = getelementptr inbounds nuw %struct.WOLFSSL, ptr %47, i32 0, i32 22
  store ptr @TLS_hmac, ptr %48, align 16, !tbaa !48
  %49 = load ptr, ptr %2, align 8, !tbaa !3
  %50 = getelementptr inbounds nuw %struct.WOLFSSL, ptr %49, i32 0, i32 44
  %51 = getelementptr inbounds nuw %struct.ProtocolVersion, ptr %50, i32 0, i32 1
  %52 = load i8, ptr %51, align 1, !tbaa !47
  %53 = zext i8 %52 to i32
  %54 = icmp sge i32 %53, 2
  br i1 %54, label %55, label %76

55:                                               ; preds = %40
  %56 = load ptr, ptr %2, align 8, !tbaa !3
  %57 = getelementptr inbounds nuw %struct.WOLFSSL, ptr %56, i32 0, i32 49
  %58 = getelementptr inbounds nuw %struct.Options, ptr %57, i32 0, i32 1
  %59 = load i64, ptr %58, align 8
  %60 = and i64 %59, -32769
  %61 = or i64 %60, 32768
  store i64 %61, ptr %58, align 8
  %62 = load ptr, ptr %2, align 8, !tbaa !3
  %63 = getelementptr inbounds nuw %struct.WOLFSSL, ptr %62, i32 0, i32 44
  %64 = getelementptr inbounds nuw %struct.ProtocolVersion, ptr %63, i32 0, i32 1
  %65 = load i8, ptr %64, align 1, !tbaa !47
  %66 = zext i8 %65 to i32
  %67 = icmp sge i32 %66, 4
  br i1 %67, label %68, label %75

68:                                               ; preds = %55
  %69 = load ptr, ptr %2, align 8, !tbaa !3
  %70 = getelementptr inbounds nuw %struct.WOLFSSL, ptr %69, i32 0, i32 49
  %71 = getelementptr inbounds nuw %struct.Options, ptr %70, i32 0, i32 1
  %72 = load i64, ptr %71, align 8
  %73 = and i64 %72, -65537
  %74 = or i64 %73, 65536
  store i64 %74, ptr %71, align 8
  br label %75

75:                                               ; preds = %68, %55
  br label %76

76:                                               ; preds = %75, %40
  br label %77

77:                                               ; preds = %76, %33, %26
  %78 = load ptr, ptr %2, align 8, !tbaa !3
  %79 = getelementptr inbounds nuw %struct.WOLFSSL, ptr %78, i32 0, i32 44
  %80 = load i16, ptr %79, align 2
  %81 = call i32 @IsAtLeastTLSv1_3(i16 %80)
  %82 = icmp ne i32 %81, 0
  br i1 %82, label %90, label %83

83:                                               ; preds = %77
  %84 = load ptr, ptr %2, align 8, !tbaa !3
  %85 = getelementptr inbounds nuw %struct.WOLFSSL, ptr %84, i32 0, i32 46
  %86 = getelementptr inbounds nuw %struct.CipherSpecs, ptr %85, i32 0, i32 5
  %87 = load i8, ptr %86, align 1, !tbaa !49
  %88 = zext i8 %87 to i32
  %89 = icmp ne i32 %88, 1
  br i1 %89, label %90, label %97

90:                                               ; preds = %83, %77
  %91 = load ptr, ptr %2, align 8, !tbaa !3
  %92 = getelementptr inbounds nuw %struct.WOLFSSL, ptr %91, i32 0, i32 49
  %93 = getelementptr inbounds nuw %struct.Options, ptr %92, i32 0, i32 1
  %94 = load i64, ptr %93, align 8
  %95 = and i64 %94, -9007199254740993
  %96 = or i64 %95, 0
  store i64 %96, ptr %93, align 8
  br label %97

97:                                               ; preds = %90, %83
  br label %98

98:                                               ; preds = %97, %1
  %99 = load i32, ptr %3, align 4, !tbaa !45
  call void @llvm.lifetime.end.p0(i64 4, ptr %3) #5
  ret i32 %99
}