; Function Attrs: nounwind uwtable
define range(i32 -500, 1) i32 @SetCipherSpecs(ptr noundef %0) local_unnamed_addr #0 {
  %2 = getelementptr inbounds nuw i8, ptr %0, i64 1016
  %3 = getelementptr inbounds nuw i8, ptr %0, i64 1024
  %4 = load i64, ptr %3, align 8
  %5 = trunc i64 %4 to i16
  %6 = lshr i16 %5, 4
  %7 = and i16 %6, 3
  %8 = getelementptr inbounds nuw i8, ptr %0, i64 1037
  %9 = load i8, ptr %8, align 1, !tbaa !3
  %10 = getelementptr inbounds nuw i8, ptr %0, i64 1038
  %11 = load i8, ptr %10, align 2, !tbaa !43
  %12 = getelementptr inbounds nuw i8, ptr %0, i64 714
  %13 = tail call i32 @GetCipherSpec(i16 noundef zeroext %7, i8 noundef zeroext %9, i8 noundef zeroext %11, ptr noundef nonnull %12, ptr noundef nonnull %2)
  %14 = icmp eq i32 %13, 0
  br i1 %14, label %15, label %40

15:                                               ; preds = %1
  %16 = getelementptr inbounds nuw i8, ptr %0, i64 710
  %17 = load i8, ptr %16, align 2, !tbaa !44
  %18 = icmp eq i8 %17, 3
  br i1 %18, label %19, label %31

19:                                               ; preds = %15
  %20 = getelementptr inbounds nuw i8, ptr %0, i64 711
  %21 = load i8, ptr %20, align 1, !tbaa !45
  %.not = icmp eq i8 %21, 0
  br i1 %.not, label %31, label %22

22:                                               ; preds = %19
  %23 = load i64, ptr %3, align 8
  %24 = or i64 %23, 16384
  store i64 %24, ptr %3, align 8
  %25 = getelementptr inbounds nuw i8, ptr %0, i64 256
  store ptr @TLS_hmac, ptr %25, align 16, !tbaa !46
  %.not19 = icmp eq i8 %21, 1
  br i1 %.not19, label %31, label %26

26:                                               ; preds = %22
  %27 = or i64 %23, 49152
  store i64 %27, ptr %3, align 8
  %28 = icmp ugt i8 %21, 3
  br i1 %28, label %29, label %31

29:                                               ; preds = %26
  %30 = or i64 %23, 114688
  store i64 %30, ptr %3, align 8
  br label %31

31:                                               ; preds = %22, %29, %26, %19, %15
  %32 = load i16, ptr %16, align 2
  %33 = tail call i32 @IsAtLeastTLSv1_3(i16 %32) #7
  %.not17 = icmp eq i32 %33, 0
  br i1 %.not17, label %34, label %37

34:                                               ; preds = %31
  %35 = getelementptr inbounds nuw i8, ptr %0, i64 723
  %36 = load i8, ptr %35, align 1, !tbaa !47
  %.not18 = icmp eq i8 %36, 1
  br i1 %.not18, label %40, label %37

37:                                               ; preds = %34, %31
  %38 = load i64, ptr %3, align 8
  %39 = and i64 %38, -9007199254740993
  store i64 %39, ptr %3, align 8
  br label %40

40:                                               ; preds = %34, %37, %1
  ret i32 %13
}